; Function Attrs: mustprogress uwtable
define void @_ZNK5faiss3lsq10IcmEncoder6encodeEPiPKfRSt23mersenne_twister_engineImLm32ELm624ELm397ELm31ELm2567483615ELm11ELm4294967295ELm7ELm2636928640ELm15ELm4022730752ELm18ELm1812433253EEmm(ptr nocapture noundef nonnull readonly align 8 dereferenceable(48) %0, ptr noundef %1, ptr noundef %2, ptr noundef nonnull align 8 dereferenceable(5000) %3, i64 noundef %4, i64 noundef %5) unnamed_addr #1 align 2 {
  %7 = getelementptr inbounds i8, ptr %0, i64 40
  %8 = load ptr, ptr %7, align 8
  %9 = getelementptr inbounds i8, ptr %0, i64 8
  %10 = load ptr, ptr %9, align 8
  %11 = getelementptr inbounds i8, ptr %0, i64 32
  %12 = load i8, ptr %11, align 8
  %13 = and i8 %12, 1
  %14 = icmp ne i8 %13, 0
  tail call void @_ZNK5faiss20LocalSearchQuantizer15icm_encode_implEPiPKfS3_RSt23mersenne_twister_engineImLm32ELm624ELm397ELm31ELm2567483615ELm11ELm4294967295ELm7ELm2636928640ELm15ELm4022730752ELm18ELm1812433253EEmmb(ptr noundef nonnull align 8 dereferenceable(393) %8, ptr noundef %1, ptr noundef %2, ptr noundef %10, ptr noundef nonnull align 8 dereferenceable(5000) %3, i64 noundef %4, i64 noundef %5, i1 noundef zeroext %14)
  ret void
}